target datalayout = "e-m:e-p270:32:32-p271:32:32-p272:64:64-i64:64-i128:128-f80:128-n8:16:32:64-S128"
target triple = "x86_64-pc-linux-gnu"

%struct.SwrContext = type { ptr, i32, ptr, i32, i32, i32, %struct.AVChannelLayout, %struct.AVChannelLayout, %struct.AVChannelLayout, i32, i32, i32, float, float, float, float, float, i32, ptr, i32, %struct.AVChannelLayout, %struct.AVChannelLayout, %struct.AVChannelLayout, i32, i32, %struct.DitherContext, i32, i32, i32, i32, double, i32, double, double, i32, float, float, float, float, float, i64, i32, i32, i32, %struct.AudioData, %struct.AudioData, %struct.AudioData, %struct.AudioData, %struct.AudioData, %struct.AudioData, %struct.AudioData, %struct.AudioData, i32, i32, i32, i32, i64, i64, i32, double, ptr, ptr, ptr, ptr, ptr, [64 x [64 x double]], [64 x [64 x float]], ptr, ptr, ptr, ptr, [64 x [64 x i32]], [64 x [65 x i8]], ptr, ptr, ptr, ptr, ptr }
%struct.AVChannelLayout = type { i32, i32, %union.anon, ptr }
%union.anon = type { i64 }
%struct.DitherContext = type { i32, i32, float, float, i32, float, float, i32, [20 x float], [64 x [40 x float]], %struct.AudioData, %struct.AudioData, i32 }
%struct.AudioData = type { [64 x ptr], ptr, i32, i32, i32, i32, i32 }
%struct.filter_t = type { i32, i32, i64, i32, ptr, i32 }

@.str.4 = private unnamed_addr constant [96 x i8] c"Requested noise shaping dither not available at this sampling rate, using triangular hp dither\0A\00", align 1

; Function Attrs: cold nounwind optsize uwtable
define i32 @swri_dither_init(ptr noundef %0, i32 noundef %1, i32 noundef %2) #5 {
  %4 = alloca i32, align 4
  %5 = alloca ptr, align 8
  %6 = alloca i32, align 4
  %7 = alloca i32, align 4
  %8 = alloca i32, align 4
  %9 = alloca double, align 8
  %10 = alloca i32, align 4
  %11 = alloca ptr, align 8
  %12 = alloca i32, align 4
  store ptr %0, ptr %5, align 8, !tbaa !4
  store i32 %1, ptr %6, align 4, !tbaa !10
  store i32 %2, ptr %7, align 4, !tbaa !10
  call void @llvm.lifetime.start.p0(i64 4, ptr %8) #7
  call void @llvm.lifetime.start.p0(i64 8, ptr %9) #7
  store double 0.000000e+00, ptr %9, align 8, !tbaa !26
  %13 = load ptr, ptr %5, align 8, !tbaa !4
  %14 = getelementptr inbounds nuw %struct.SwrContext, ptr %13, i32 0, i32 25
  %15 = getelementptr inbounds nuw %struct.DitherContext, ptr %14, i32 0, i32 0
  %16 = load i32, ptr %15, align 8, !tbaa !29
  %17 = icmp sgt i32 %16, 3
  br i1 %17, label %18, label %25

18:                                               ; preds = %3
  %19 = load ptr, ptr %5, align 8, !tbaa !4
  %20 = getelementptr inbounds nuw %struct.SwrContext, ptr %19, i32 0, i32 25
  %21 = getelementptr inbounds nuw %struct.DitherContext, ptr %20, i32 0, i32 0
  %22 = load i32, ptr %21, align 8, !tbaa !29
  %23 = icmp sle i32 %22, 64
  br i1 %23, label %24, label %25

24:                                               ; preds = %18
  store i32 -22, ptr %4, align 4
  store i32 1, ptr %10, align 4
  br label %263

25:                                               ; preds = %18, %3
  %26 = load i32, ptr %6, align 4, !tbaa !10
  %27 = call i32 @av_get_packed_sample_fmt(i32 noundef %26)
  store i32 %27, ptr %6, align 4, !tbaa !10
  %28 = load i32, ptr %7, align 4, !tbaa !10
  %29 = call i32 @av_get_packed_sample_fmt(i32 noundef %28)
  store i32 %29, ptr %7, align 4, !tbaa !10
  %30 = load i32, ptr %7, align 4, !tbaa !10
  %31 = icmp eq i32 %30, 3
  br i1 %31, label %35, label %32

32:                                               ; preds = %25
  %33 = load i32, ptr %7, align 4, !tbaa !10
  %34 = icmp eq i32 %33, 4
  br i1 %34, label %35, label %48

35:                                               ; preds = %32, %25
  %36 = load i32, ptr %6, align 4, !tbaa !10
  %37 = icmp eq i32 %36, 2
  br i1 %37, label %38, label %39

38:                                               ; preds = %35
  store double 0x3E00000000000000, ptr %9, align 8, !tbaa !26
  br label %39

39:                                               ; preds = %38, %35
  %40 = load i32, ptr %6, align 4, !tbaa !10
  %41 = icmp eq i32 %40, 1
  br i1 %41, label %42, label %43

42:                                               ; preds = %39
  store double 0x3F00000000000000, ptr %9, align 8, !tbaa !26
  br label %43

43:                                               ; preds = %42, %39
  %44 = load i32, ptr %6, align 4, !tbaa !10
  %45 = icmp eq i32 %44, 0
  br i1 %45, label %46, label %47

46:                                               ; preds = %43
  store double 7.812500e-03, ptr %9, align 8, !tbaa !26
  br label %47

47:                                               ; preds = %46, %43
  br label %48

48:                                               ; preds = %47, %32
  %49 = load i32, ptr %7, align 4, !tbaa !10
  %50 = icmp eq i32 %49, 2
  br i1 %50, label %51, label %62

51:                                               ; preds = %48
  %52 = load i32, ptr %6, align 4, !tbaa !10
  %53 = icmp eq i32 %52, 2
  br i1 %53, label %54, label %62

54:                                               ; preds = %51
  %55 = load ptr, ptr %5, align 8, !tbaa !4
  %56 = getelementptr inbounds nuw %struct.SwrContext, ptr %55, i32 0, i32 25
  %57 = getelementptr inbounds nuw %struct.DitherContext, ptr %56, i32 0, i32 12
  %58 = load i32, ptr %57, align 8, !tbaa !36
  %59 = and i32 %58, 31
  %60 = icmp ne i32 %59, 0
  br i1 %60, label %61, label %62

61:                                               ; preds = %54
  store double 1.000000e+00, ptr %9, align 8, !tbaa !26
  br label %62

62:                                               ; preds = %61, %54, %51, %48
  %63 = load i32, ptr %7, align 4, !tbaa !10
  %64 = icmp eq i32 %63, 2
  br i1 %64, label %65, label %69

65:                                               ; preds = %62
  %66 = load i32, ptr %6, align 4, !tbaa !10
  %67 = icmp eq i32 %66, 1
  br i1 %67, label %68, label %69

68:                                               ; preds = %65
  store double 6.553600e+04, ptr %9, align 8, !tbaa !26
  br label %69

69:                                               ; preds = %68, %65, %62
  %70 = load i32, ptr %7, align 4, !tbaa !10
  %71 = icmp eq i32 %70, 2
  br i1 %71, label %72, label %76

72:                                               ; preds = %69
  %73 = load i32, ptr %6, align 4, !tbaa !10
  %74 = icmp eq i32 %73, 0
  br i1 %74, label %75, label %76

75:                                               ; preds = %72
  store double 0x4170000000000000, ptr %9, align 8, !tbaa !26
  br label %76

76:                                               ; preds = %75, %72, %69
  %77 = load i32, ptr %7, align 4, !tbaa !10
  %78 = icmp eq i32 %77, 1
  br i1 %78, label %79, label %83

79:                                               ; preds = %76
  %80 = load i32, ptr %6, align 4, !tbaa !10
  %81 = icmp eq i32 %80, 0
  br i1 %81, label %82, label %83

82:                                               ; preds = %79
  store double 2.560000e+02, ptr %9, align 8, !tbaa !26
  br label %83

83:                                               ; preds = %82, %79, %76
  %84 = load ptr, ptr %5, align 8, !tbaa !4
  %85 = getelementptr inbounds nuw %struct.SwrContext, ptr %84, i32 0, i32 25
  %86 = getelementptr inbounds nuw %struct.DitherContext, ptr %85, i32 0, i32 2
  %87 = load float, ptr %86, align 8, !tbaa !37
  %88 = fpext nsz float %87 to double
  %89 = load double, ptr %9, align 8, !tbaa !26
  %90 = fmul nsz double %89, %88
  store double %90, ptr %9, align 8, !tbaa !26
  %91 = load i32, ptr %6, align 4, !tbaa !10
  %92 = icmp eq i32 %91, 2
  br i1 %92, label %93, label %109

93:                                               ; preds = %83
  %94 = load ptr, ptr %5, align 8, !tbaa !4
  %95 = getelementptr inbounds nuw %struct.SwrContext, ptr %94, i32 0, i32 25
  %96 = getelementptr inbounds nuw %struct.DitherContext, ptr %95, i32 0, i32 12
  %97 = load i32, ptr %96, align 8, !tbaa !36
  %98 = icmp ne i32 %97, 0
  br i1 %98, label %99, label %109

99:                                               ; preds = %93
  %100 = load ptr, ptr %5, align 8, !tbaa !4
  %101 = getelementptr inbounds nuw %struct.SwrContext, ptr %100, i32 0, i32 25
  %102 = getelementptr inbounds nuw %struct.DitherContext, ptr %101, i32 0, i32 12
  %103 = load i32, ptr %102, align 8, !tbaa !36
  %104 = sub nsw i32 32, %103
  %105 = shl i32 1, %104
  %106 = sitofp i32 %105 to double
  %107 = load double, ptr %9, align 8, !tbaa !26
  %108 = fmul nsz double %107, %106
  store double %108, ptr %9, align 8, !tbaa !26
  br label %109

109:                                              ; preds = %99, %93, %83
  %110 = load double, ptr %9, align 8, !tbaa !26
  %111 = fcmp nsz oeq double %110, 0.000000e+00
  br i1 %111, label %112, label %116

112:                                              ; preds = %109
  %113 = load ptr, ptr %5, align 8, !tbaa !4
  %114 = getelementptr inbounds nuw %struct.SwrContext, ptr %113, i32 0, i32 25
  %115 = getelementptr inbounds nuw %struct.DitherContext, ptr %114, i32 0, i32 0
  store i32 0, ptr %115, align 8, !tbaa !29
  store i32 0, ptr %4, align 4
  store i32 1, ptr %10, align 4
  br label %263

116:                                              ; preds = %109
  %117 = load ptr, ptr %5, align 8, !tbaa !4
  %118 = getelementptr inbounds nuw %struct.SwrContext, ptr %117, i32 0, i32 25
  %119 = getelementptr inbounds nuw %struct.DitherContext, ptr %118, i32 0, i32 7
  store i32 0, ptr %119, align 4, !tbaa !38
  %120 = load double, ptr %9, align 8, !tbaa !26
  %121 = fptrunc nsz double %120 to float
  %122 = load ptr, ptr %5, align 8, !tbaa !4
  %123 = getelementptr inbounds nuw %struct.SwrContext, ptr %122, i32 0, i32 25
  %124 = getelementptr inbounds nuw %struct.DitherContext, ptr %123, i32 0, i32 3
  store float %121, ptr %124, align 4, !tbaa !12
  %125 = load double, ptr %9, align 8, !tbaa !26
  %126 = fptrunc nsz double %125 to float
  %127 = load ptr, ptr %5, align 8, !tbaa !4
  %128 = getelementptr inbounds nuw %struct.SwrContext, ptr %127, i32 0, i32 25
  %129 = getelementptr inbounds nuw %struct.DitherContext, ptr %128, i32 0, i32 5
  store float %126, ptr %129, align 4, !tbaa !39
  %130 = load double, ptr %9, align 8, !tbaa !26
  %131 = fcmp nsz une double %130, 0.000000e+00
  br i1 %131, label %132, label %135

132:                                              ; preds = %116
  %133 = load double, ptr %9, align 8, !tbaa !26
  %134 = fdiv nsz double 1.000000e+00, %133
  br label %136

135:                                              ; preds = %116
  br label %136

136:                                              ; preds = %135, %132
  %137 = phi nsz double [ %134, %132 ], [ 0.000000e+00, %135 ]
  %138 = fptrunc nsz double %137 to float
  %139 = load ptr, ptr %5, align 8, !tbaa !4
  %140 = getelementptr inbounds nuw %struct.SwrContext, ptr %139, i32 0, i32 25
  %141 = getelementptr inbounds nuw %struct.DitherContext, ptr %140, i32 0, i32 6
  store float %138, ptr %141, align 8, !tbaa !40
  %142 = load ptr, ptr %5, align 8, !tbaa !4
  %143 = getelementptr inbounds nuw %struct.SwrContext, ptr %142, i32 0, i32 25
  %144 = getelementptr inbounds nuw %struct.DitherContext, ptr %143, i32 0, i32 9
  %145 = getelementptr inbounds [64 x [40 x float]], ptr %144, i64 0, i64 0
  call void @llvm.memset.p0.i64(ptr align 8 %145, i8 0, i64 10240, i1 false)
  store i32 0, ptr %8, align 4, !tbaa !10
  br label %146

146:                                              ; preds = %241, %136
  %147 = load i32, ptr %8, align 4, !tbaa !10
  %148 = sext i32 %147 to i64
  %149 = getelementptr inbounds [16 x %struct.filter_t], ptr @filters, i64 0, i64 %148
  %150 = getelementptr inbounds nuw %struct.filter_t, ptr %149, i32 0, i32 4
  %151 = load ptr, ptr %150, align 8, !tbaa !41
  %152 = icmp ne ptr %151, null
  br i1 %152, label %153, label %244

153:                                              ; preds = %146
  call void @llvm.lifetime.start.p0(i64 8, ptr %11) #7
  %154 = load i32, ptr %8, align 4, !tbaa !10
  %155 = sext i32 %154 to i64
  %156 = getelementptr inbounds [16 x %struct.filter_t], ptr @filters, i64 0, i64 %155
  store ptr %156, ptr %11, align 8, !tbaa !9
  %157 = load ptr, ptr %5, align 8, !tbaa !4
  %158 = getelementptr inbounds nuw %struct.SwrContext, ptr %157, i32 0, i32 10
  %159 = load i32, ptr %158, align 4, !tbaa !43
  %160 = load ptr, ptr %11, align 8, !tbaa !9
  %161 = getelementptr inbounds nuw %struct.filter_t, ptr %160, i32 0, i32 0
  %162 = load i32, ptr %161, align 8, !tbaa !44
  %163 = sub nsw i32 %159, %162
  %164 = sext i32 %163 to i64
  %165 = call i64 @llvm.abs.i64(i64 %164, i1 true)
  %166 = mul nsw i64 %165, 20
  %167 = load ptr, ptr %11, align 8, !tbaa !9
  %168 = getelementptr inbounds nuw %struct.filter_t, ptr %167, i32 0, i32 0
  %169 = load i32, ptr %168, align 8, !tbaa !44
  %170 = sext i32 %169 to i64
  %171 = icmp sle i64 %166, %170
  br i1 %171, label %172, label %237

172:                                              ; preds = %153
  %173 = load ptr, ptr %11, align 8, !tbaa !9
  %174 = getelementptr inbounds nuw %struct.filter_t, ptr %173, i32 0, i32 5
  %175 = load i32, ptr %174, align 8, !tbaa !45
  %176 = load ptr, ptr %5, align 8, !tbaa !4
  %177 = getelementptr inbounds nuw %struct.SwrContext, ptr %176, i32 0, i32 25
  %178 = getelementptr inbounds nuw %struct.DitherContext, ptr %177, i32 0, i32 0
  %179 = load i32, ptr %178, align 8, !tbaa !29
  %180 = icmp eq i32 %175, %179
  br i1 %180, label %181, label %237

181:                                              ; preds = %172
  call void @llvm.lifetime.start.p0(i64 4, ptr %12) #7
  %182 = load ptr, ptr %11, align 8, !tbaa !9
  %183 = getelementptr inbounds nuw %struct.filter_t, ptr %182, i32 0, i32 2
  %184 = load i64, ptr %183, align 8, !tbaa !46
  %185 = trunc i64 %184 to i32
  %186 = load ptr, ptr %5, align 8, !tbaa !4
  %187 = getelementptr inbounds nuw %struct.SwrContext, ptr %186, i32 0, i32 25
  %188 = getelementptr inbounds nuw %struct.DitherContext, ptr %187, i32 0, i32 4
  store i32 %185, ptr %188, align 8, !tbaa !47
  store i32 0, ptr %12, align 4, !tbaa !10
  br label %189

189:                                              ; preds = %211, %181
  %190 = load i32, ptr %12, align 4, !tbaa !10
  %191 = sext i32 %190 to i64
  %192 = load ptr, ptr %11, align 8, !tbaa !9
  %193 = getelementptr inbounds nuw %struct.filter_t, ptr %192, i32 0, i32 2
  %194 = load i64, ptr %193, align 8, !tbaa !46
  %195 = icmp ult i64 %191, %194
  br i1 %195, label %196, label %214

196:                                              ; preds = %189
  %197 = load ptr, ptr %11, align 8, !tbaa !9
  %198 = getelementptr inbounds nuw %struct.filter_t, ptr %197, i32 0, i32 4
  %199 = load ptr, ptr %198, align 8, !tbaa !41
  %200 = load i32, ptr %12, align 4, !tbaa !10
  %201 = sext i32 %200 to i64
  %202 = getelementptr inbounds double, ptr %199, i64 %201
  %203 = load double, ptr %202, align 8, !tbaa !26
  %204 = fptrunc nsz double %203 to float
  %205 = load ptr, ptr %5, align 8, !tbaa !4
  %206 = getelementptr inbounds nuw %struct.SwrContext, ptr %205, i32 0, i32 25
  %207 = getelementptr inbounds nuw %struct.DitherContext, ptr %206, i32 0, i32 8
  %208 = load i32, ptr %12, align 4, !tbaa !10
  %209 = sext i32 %208 to i64
  %210 = getelementptr inbounds [20 x float], ptr %207, i64 0, i64 %209
  store float %204, ptr %210, align 4, !tbaa !34
  br label %211

211:                                              ; preds = %196
  %212 = load i32, ptr %12, align 4, !tbaa !10
  %213 = add nsw i32 %212, 1
  store i32 %213, ptr %12, align 4, !tbaa !10
  br label %189, !llvm.loop !48

214:                                              ; preds = %189
  %215 = load ptr, ptr %11, align 8, !tbaa !9
  %216 = getelementptr inbounds nuw %struct.filter_t, ptr %215, i32 0, i32 3
  %217 = load i32, ptr %216, align 8, !tbaa !49
  %218 = sitofp i32 %217 to double
  %219 = fmul nsz double %218, 0x40026BB1BBB55516
  %220 = fmul nsz double %219, 5.000000e-03
  %221 = call nsz double @llvm.exp.f64(double %220)
  %222 = fmul nsz double %221, 2.000000e+00
  %223 = load i32, ptr %6, align 4, !tbaa !10
  %224 = call i32 @av_get_bytes_per_sample(i32 noundef %223)
  %225 = mul nsw i32 8, %224
  %226 = shl i32 1, %225
  %227 = sitofp i32 %226 to double
  %228 = fdiv nsz double %222, %227
  %229 = fsub nsz double 1.000000e+00, %228
  %230 = load ptr, ptr %5, align 8, !tbaa !4
  %231 = getelementptr inbounds nuw %struct.SwrContext, ptr %230, i32 0, i32 25
  %232 = getelementptr inbounds nuw %struct.DitherContext, ptr %231, i32 0, i32 6
  %233 = load float, ptr %232, align 8, !tbaa !40
  %234 = fpext nsz float %233 to double
  %235 = fmul nsz double %234, %229
  %236 = fptrunc nsz double %235 to float
  store float %236, ptr %232, align 8, !tbaa !40
  store i32 2, ptr %10, align 4
  call void @llvm.lifetime.end.p0(i64 4, ptr %12) #7
  br label %238

237:                                              ; preds = %172, %153
  store i32 0, ptr %10, align 4
  br label %238

238:                                              ; preds = %237, %214
  call void @llvm.lifetime.end.p0(i64 8, ptr %11) #7
  %239 = load i32, ptr %10, align 4
  switch i32 %239, label %265 [
    i32 0, label %240
    i32 2, label %244
  ]

240:                                              ; preds = %238
  br label %241

241:                                              ; preds = %240
  %242 = load i32, ptr %8, align 4, !tbaa !10
  %243 = add nsw i32 %242, 1
  store i32 %243, ptr %8, align 4, !tbaa !10
  br label %146, !llvm.loop !50

244:                                              ; preds = %238, %146
  %245 = load i32, ptr %8, align 4, !tbaa !10
  %246 = sext i32 %245 to i64
  %247 = getelementptr inbounds [16 x %struct.filter_t], ptr @filters, i64 0, i64 %246
  %248 = getelementptr inbounds nuw %struct.filter_t, ptr %247, i32 0, i32 4
  %249 = load ptr, ptr %248, align 8, !tbaa !41
  %250 = icmp ne ptr %249, null
  br i1 %250, label %262, label %251

251:                                              ; preds = %244
  %252 = load ptr, ptr %5, align 8, !tbaa !4
  %253 = getelementptr inbounds nuw %struct.SwrContext, ptr %252, i32 0, i32 25
  %254 = getelementptr inbounds nuw %struct.DitherContext, ptr %253, i32 0, i32 0
  %255 = load i32, ptr %254, align 8, !tbaa !29
  %256 = icmp sgt i32 %255, 64
  br i1 %256, label %257, label %262

257:                                              ; preds = %251
  %258 = load ptr, ptr %5, align 8, !tbaa !4
  call void (ptr, i32, ptr, ...) @av_log(ptr noundef %258, i32 noundef 24, ptr noundef @.str.4)
  %259 = load ptr, ptr %5, align 8, !tbaa !4
  %260 = getelementptr inbounds nuw %struct.SwrContext, ptr %259, i32 0, i32 25
  %261 = getelementptr inbounds nuw %struct.DitherContext, ptr %260, i32 0, i32 0
  store i32 3, ptr %261, align 8, !tbaa !29
  br label %262

262:                                              ; preds = %257, %251, %244
  store i32 0, ptr %4, align 4
  store i32 1, ptr %10, align 4
  br label %263

263:                                              ; preds = %262, %112, %24
  call void @llvm.lifetime.end.p0(i64 8, ptr %9) #7
  call void @llvm.lifetime.end.p0(i64 4, ptr %8) #7
  %264 = load i32, ptr %4, align 4
  ret i32 %264

265:                                              ; preds = %238
  unreachable
}