; Function Attrs: cold nounwind optsize uwtable
define range(i32 -22, 1) i32 @swri_dither_init(ptr noundef %0, i32 noundef %1, i32 noundef %2) local_unnamed_addr #4 {
  %4 = getelementptr inbounds nuw i8, ptr %0, i64 248
  %5 = load i32, ptr %4, align 8, !tbaa !22
  %6 = add i32 %5, -4
  %or.cond80 = icmp ult i32 %6, 61
  br i1 %or.cond80, label %104, label %7

7:                                                ; preds = %3
  %8 = tail call i32 @av_get_packed_sample_fmt(i32 noundef %1) #8
  %9 = tail call i32 @av_get_packed_sample_fmt(i32 noundef %2) #8
  %10 = add i32 %9, -3
  %or.cond = icmp ult i32 %10, 2
  br i1 %or.cond, label %.thread, label %14

.thread:                                          ; preds = %7
  %11 = icmp eq i32 %8, 2
  %.1 = select nsz i1 %11, double 0x3E00000000000000, double 0.000000e+00
  %12 = icmp eq i32 %8, 1
  %.2 = select nsz i1 %12, double 0x3F00000000000000, double %.1
  %13 = icmp eq i32 %8, 0
  %.071.ph = select i1 %13, double 7.812500e-03, double %.2
  br label %22

14:                                               ; preds = %7
  %15 = icmp eq i32 %9, 2
  %16 = icmp eq i32 %8, 2
  %or.cond3 = select i1 %15, i1 %16, i1 false
  br i1 %or.cond3, label %17, label %22

17:                                               ; preds = %14
  %18 = getelementptr inbounds nuw i8, ptr %0, i64 11688
  %19 = load i32, ptr %18, align 8, !tbaa !31
  %20 = and i32 %19, 31
  %.not = icmp eq i32 %20, 0
  br i1 %.not, label %22, label %21

21:                                               ; preds = %17
  br label %22

22:                                               ; preds = %.thread, %21, %17, %14
  %23 = phi i1 [ true, %21 ], [ true, %17 ], [ %16, %14 ], [ %11, %.thread ]
  %24 = phi i1 [ true, %21 ], [ true, %17 ], [ %15, %14 ], [ false, %.thread ]
  %.3 = phi nsz double [ 1.000000e+00, %21 ], [ 0.000000e+00, %17 ], [ 0.000000e+00, %14 ], [ %.071.ph, %.thread ]
  %25 = icmp eq i32 %8, 1
  %or.cond5 = select i1 %24, i1 %25, i1 false
  %.4 = select nsz i1 %or.cond5, double 6.553600e+04, double %.3
  %26 = icmp eq i32 %8, 0
  %or.cond7 = select i1 %24, i1 %26, i1 false
  %.5 = select nsz i1 %or.cond7, double 0x4170000000000000, double %.4
  %27 = icmp eq i32 %9, 1
  %or.cond9 = select i1 %27, i1 %26, i1 false
  %.6 = select nsz i1 %or.cond9, double 2.560000e+02, double %.5
  %28 = getelementptr inbounds nuw i8, ptr %0, i64 256
  %29 = load float, ptr %28, align 8, !tbaa !32
  %30 = fpext nsz float %29 to double
  %31 = fmul nsz double %.6, %30
  br i1 %23, label %32, label %40

32:                                               ; preds = %22
  %33 = getelementptr inbounds nuw i8, ptr %0, i64 11688
  %34 = load i32, ptr %33, align 8, !tbaa !31
  %.not76 = icmp eq i32 %34, 0
  br i1 %.not76, label %40, label %35

35:                                               ; preds = %32
  %36 = sub nsw i32 32, %34
  %37 = shl nuw i32 1, %36
  %38 = sitofp i32 %37 to double
  %39 = fmul nsz double %31, %38
  br label %40

40:                                               ; preds = %35, %32, %22
  %.7 = phi nsz double [ %39, %35 ], [ %31, %32 ], [ %31, %22 ]
  %41 = fcmp nsz oeq double %.7, 0.000000e+00
  br i1 %41, label %42, label %43

42:                                               ; preds = %40
  store i32 0, ptr %4, align 8, !tbaa !22
  br label %104

43:                                               ; preds = %40
  %44 = getelementptr inbounds nuw i8, ptr %0, i64 276
  store i32 0, ptr %44, align 4, !tbaa !33
  %45 = fptrunc nsz double %.7 to float
  %46 = getelementptr inbounds nuw i8, ptr %0, i64 260
  store float %45, ptr %46, align 4, !tbaa !4
  %47 = getelementptr inbounds nuw i8, ptr %0, i64 268
  store float %45, ptr %47, align 4, !tbaa !34
  %48 = fdiv nsz double 1.000000e+00, %.7
  %49 = fptrunc nsz double %48 to float
  %50 = getelementptr inbounds nuw i8, ptr %0, i64 272
  store float %49, ptr %50, align 8, !tbaa !35
  %51 = getelementptr inbounds nuw i8, ptr %0, i64 360
  tail call void @llvm.memset.p0.i64(ptr noundef nonnull align 8 dereferenceable(10240) %51, i8 0, i64 10240, i1 false)
  %52 = getelementptr inbounds nuw i8, ptr %0, i64 116
  %53 = load i32, ptr %52, align 4, !tbaa !36
  br label %54

54:                                               ; preds = %43, %79
  %indvars.iv = phi i64 [ 0, %43 ], [ %indvars.iv.next, %79 ]
  %55 = phi ptr [ @lip44, %43 ], [ %82, %79 ]
  %56 = phi ptr [ @filters, %43 ], [ %80, %79 ]
  %57 = load i32, ptr %56, align 8, !tbaa !37
  %58 = sub nsw i32 %53, %57
  %59 = tail call i32 @llvm.abs.i32(i32 %58, i1 false)
  %60 = zext i32 %59 to i64
  %61 = mul nuw nsw i64 %60, 20
  %62 = sext i32 %57 to i64
  %.not78 = icmp sgt i64 %61, %62
  br i1 %.not78, label %79, label %63

63:                                               ; preds = %54
  %64 = getelementptr inbounds nuw i8, ptr %56, i64 32
  %65 = load i32, ptr %64, align 8, !tbaa !40
  %66 = load i32, ptr %4, align 8, !tbaa !22
  %67 = icmp eq i32 %65, %66
  br i1 %67, label %68, label %79

68:                                               ; preds = %63
  %69 = getelementptr inbounds nuw i8, ptr %56, i64 8
  %70 = load i64, ptr %69, align 8, !tbaa !41
  %71 = trunc i64 %70 to i32
  %72 = getelementptr inbounds nuw i8, ptr %0, i64 264
  store i32 %71, ptr %72, align 8, !tbaa !42
  %.not93 = icmp eq i64 %70, 0
  br i1 %.not93, label %._crit_edge, label %.lr.ph

.lr.ph:                                           ; preds = %68
  %73 = getelementptr inbounds nuw i8, ptr %0, i64 280
  br label %74

74:                                               ; preds = %.lr.ph, %74
  %indvars.iv98 = phi i64 [ 0, %.lr.ph ], [ %indvars.iv.next99, %74 ]
  %75 = getelementptr inbounds nuw double, ptr %55, i64 %indvars.iv98
  %76 = load double, ptr %75, align 8, !tbaa !23
  %77 = fptrunc nsz double %76 to float
  %78 = getelementptr inbounds nuw [20 x float], ptr %73, i64 0, i64 %indvars.iv98
  store float %77, ptr %78, align 4, !tbaa !29
  %indvars.iv.next99 = add nuw nsw i64 %indvars.iv98, 1
  %exitcond101.not = icmp eq i64 %indvars.iv.next99, %70
  br i1 %exitcond101.not, label %._crit_edge, label %74, !llvm.loop !43

79:                                               ; preds = %63, %54
  %indvars.iv.next = add nuw nsw i64 %indvars.iv, 1
  %80 = getelementptr inbounds nuw [16 x %struct.filter_t], ptr @filters, i64 0, i64 %indvars.iv.next
  %81 = getelementptr inbounds nuw i8, ptr %80, i64 24
  %82 = load ptr, ptr %81, align 8, !tbaa !44
  %exitcond = icmp eq i64 %indvars.iv.next, 15
  br i1 %exitcond, label %100, label %54, !llvm.loop !45

._crit_edge:                                      ; preds = %74, %68
  %83 = getelementptr inbounds nuw i8, ptr %56, i64 16
  %84 = load i32, ptr %83, align 8, !tbaa !46
  %85 = sitofp i32 %84 to double
  %86 = fmul nsz double %85, 0x40026BB1BBB55516
  %87 = fmul nsz double %86, 5.000000e-03
  %88 = tail call nsz double @llvm.exp.f64(double %87)
  %89 = fmul nsz double %88, 2.000000e+00
  %90 = tail call i32 @av_get_bytes_per_sample(i32 noundef %8) #8
  %91 = shl nsw i32 %90, 3
  %92 = shl nuw i32 1, %91
  %93 = uitofp nneg i32 %92 to double
  %94 = fdiv nsz double %89, %93
  %95 = fsub nsz double 1.000000e+00, %94
  %96 = load float, ptr %50, align 8, !tbaa !35
  %97 = fpext nsz float %96 to double
  %98 = fmul nsz double %95, %97
  %99 = fptrunc nsz double %98 to float
  store float %99, ptr %50, align 8, !tbaa !35
  br label %104

100:                                              ; preds = %79
  %101 = load i32, ptr %4, align 8, !tbaa !22
  %102 = icmp sgt i32 %101, 64
  br i1 %102, label %103, label %104

103:                                              ; preds = %100
  tail call void (ptr, i32, ptr, ...) @av_log(ptr noundef nonnull %0, i32 noundef 24, ptr noundef nonnull @.str.4) #8
  store i32 3, ptr %4, align 8, !tbaa !22
  br label %104

104:                                              ; preds = %._crit_edge, %100, %103, %3, %42
  %.069 = phi i32 [ 0, %42 ], [ -22, %3 ], [ 0, %103 ], [ 0, %100 ], [ 0, %._crit_edge ]
  ret i32 %.069
}